target datalayout = "e-m:e-p270:32:32-p271:32:32-p272:64:64-i64:64-i128:128-f80:128-n8:16:32:64-S128"
target triple = "x86_64-pc-linux-gnu"

@_ZN15MetaspaceShared28_shared_metaspace_static_topE = hidden global ptr null, align 8
@_ZN12MetaspaceObj22_shared_metaspace_baseE = external global ptr, align 8
@_ZN12MetaspaceObj21_shared_metaspace_topE = external global ptr, align 8

; Function Attrs: mustprogress nounwind uwtable
define linkonce_odr hidden noundef ptr @_ZN12MetaspaceObj20shared_metaspace_topEv() #1 comdat align 2 {
  %1 = load ptr, ptr @_ZN12MetaspaceObj21_shared_metaspace_topE, align 8
  ret ptr %1
}

; Function Attrs: mustprogress nounwind uwtable
define linkonce_odr hidden noundef zeroext i1 @_ZN12MetaspaceObj9is_sharedEPKS_(ptr noundef %0) #1 comdat align 2 {
  %2 = alloca ptr, align 8
  store ptr %0, ptr %2, align 8
  %3 = load ptr, ptr %2, align 8
  %4 = load ptr, ptr @_ZN12MetaspaceObj21_shared_metaspace_topE, align 8
  %5 = icmp ult ptr %3, %4
  br i1 %5, label %6, label %10

6:                                                ; preds = %1
  %7 = load ptr, ptr %2, align 8
  %8 = load ptr, ptr @_ZN12MetaspaceObj22_shared_metaspace_baseE, align 8
  %9 = icmp uge ptr %7, %8
  br label %10

10:                                               ; preds = %6, %1
  %11 = phi i1 [ false, %1 ], [ %9, %6 ]
  ret i1 %11
}

; Function Attrs: mustprogress nounwind uwtable
define hidden noundef zeroext i1 @_ZN15MetaspaceShared17is_shared_dynamicEPv(ptr noundef %0) #1 align 2 {
  %2 = alloca i1, align 1
  %3 = alloca ptr, align 8
  store ptr %0, ptr %3, align 8
  %4 = load ptr, ptr %3, align 8
  %5 = call noundef ptr @_ZN12MetaspaceObj20shared_metaspace_topEv()
  %6 = icmp ult ptr %4, %5
  br i1 %6, label %7, label %12

7:                                                ; preds = %1
  %8 = load ptr, ptr %3, align 8
  %9 = load ptr, ptr @_ZN15MetaspaceShared28_shared_metaspace_static_topE, align 8
  %10 = icmp uge ptr %8, %9
  br i1 %10, label %11, label %12

11:                                               ; preds = %7
  store i1 true, ptr %2, align 1
  br label %13

12:                                               ; preds = %7, %1
  store i1 false, ptr %2, align 1
  br label %13

13:                                               ; preds = %12, %11
  %14 = load i1, ptr %2, align 1
  ret i1 %14
}

; Function Attrs: mustprogress nounwind uwtable
define linkonce_odr hidden noundef zeroext i1 @_ZN15MetaspaceShared22is_in_shared_metaspaceEPKv(ptr noundef %0) #1 comdat align 2 {
  %2 = alloca ptr, align 8
  store ptr %0, ptr %2, align 8
  %3 = load ptr, ptr %2, align 8
  %4 = call noundef zeroext i1 @_ZN12MetaspaceObj9is_sharedEPKS_(ptr noundef %3)
  ret i1 %4
}

; Function Attrs: mustprogress nounwind uwtable
define hidden noundef zeroext i1 @_ZN15MetaspaceShared16is_shared_staticEPv(ptr noundef %0) #1 align 2 {
  %2 = alloca i1, align 1
  %3 = alloca ptr, align 8
  store ptr %0, ptr %3, align 8
  %4 = load ptr, ptr %3, align 8
  %5 = call noundef zeroext i1 @_ZN15MetaspaceShared22is_in_shared_metaspaceEPKv(ptr noundef %4)
  br i1 %5, label %6, label %10

6:                                                ; preds = %1
  %7 = load ptr, ptr %3, align 8
  %8 = call noundef zeroext i1 @_ZN15MetaspaceShared17is_shared_dynamicEPv(ptr noundef %7)
  br i1 %8, label %10, label %9

9:                                                ; preds = %6
  store i1 true, ptr %2, align 1
  br label %11

10:                                               ; preds = %6, %1
  store i1 false, ptr %2, align 1
  br label %11

11:                                               ; preds = %10, %9
  %12 = load i1, ptr %2, align 1
  ret i1 %12
}