; Function Attrs: mustprogress nofree norecurse nosync nounwind willreturn memory(read, argmem: none, inaccessiblemem: none) uwtable
define hidden noundef zeroext i1 @_ZN15MetaspaceShared16is_shared_staticEPv(ptr noundef readnone %0) local_unnamed_addr #4 align 2 {
  %2 = load ptr, ptr @_ZN12MetaspaceObj21_shared_metaspace_topE, align 8
  %3 = icmp ugt ptr %2, %0
  %4 = load ptr, ptr @_ZN12MetaspaceObj22_shared_metaspace_baseE, align 8
  %5 = icmp ule ptr %4, %0
  %.not5.not7 = select i1 %3, i1 %5, i1 false
  %6 = load ptr, ptr @_ZN15MetaspaceShared28_shared_metaspace_static_topE, align 8
  %.not.i = icmp ugt ptr %6, %0
  %or.cond.not = select i1 %.not5.not7, i1 %.not.i, i1 false
  ret i1 %or.cond.not
}